target datalayout = "e-m:e-p270:32:32-p271:32:32-p272:64:64-i64:64-i128:128-f80:128-n8:16:32:64-S128"
target triple = "x86_64-pc-linux-gnu"

%"class.ncnn::MultiHeadAttention" = type <{ %"class.ncnn::Layer", i32, i32, i32, i32, i32, i32, float, i32, %"class.ncnn::Mat", %"class.ncnn::Mat", %"class.ncnn::Mat", %"class.ncnn::Mat", %"class.ncnn::Mat", %"class.ncnn::Mat", %"class.ncnn::Mat", %"class.ncnn::Mat", %"class.ncnn::Mat", %"class.ncnn::Mat", %"class.ncnn::Mat", float, [4 x i8] }>
%"class.ncnn::Layer" = type { ptr, i8, i8, i8, i8, i8, i8, i8, i8, i8, i8, i8, i8, i8, i8, i8, i8, i8, i8, i8, i8, i32, ptr, i32, %"class.std::__cxx11::basic_string", %"class.std::__cxx11::basic_string", %"class.std::vector", %"class.std::vector", %"class.std::vector.3", %"class.std::vector.3" }
%"class.std::__cxx11::basic_string" = type { %"struct.std::__cxx11::basic_string<char>::_Alloc_hider", i64, %union.anon }
%"struct.std::__cxx11::basic_string<char>::_Alloc_hider" = type { ptr }
%union.anon = type { i64, [8 x i8] }
%"class.std::vector" = type { %"struct.std::_Vector_base" }
%"struct.std::_Vector_base" = type { %"struct.std::_Vector_base<int, std::allocator<int>>::_Vector_impl" }
%"struct.std::_Vector_base<int, std::allocator<int>>::_Vector_impl" = type { %"struct.std::_Vector_base<int, std::allocator<int>>::_Vector_impl_data" }
%"struct.std::_Vector_base<int, std::allocator<int>>::_Vector_impl_data" = type { ptr, ptr, ptr }
%"class.std::vector.3" = type { %"struct.std::_Vector_base.4" }
%"struct.std::_Vector_base.4" = type { %"struct.std::_Vector_base<ncnn::Mat, std::allocator<ncnn::Mat>>::_Vector_impl" }
%"struct.std::_Vector_base<ncnn::Mat, std::allocator<ncnn::Mat>>::_Vector_impl" = type { %"struct.std::_Vector_base<ncnn::Mat, std::allocator<ncnn::Mat>>::_Vector_impl_data" }
%"struct.std::_Vector_base<ncnn::Mat, std::allocator<ncnn::Mat>>::_Vector_impl_data" = type { ptr, ptr, ptr }
%"class.ncnn::Mat" = type { ptr, ptr, i64, i32, ptr, i32, i32, i32, i32, i32, i64 }

; Function Attrs: mustprogress uwtable
define hidden noundef i32 @_ZN4ncnn18MultiHeadAttention10load_paramERKNS_9ParamDictE(ptr noundef nonnull align 8 dereferenceable(1036) %0, ptr noundef nonnull align 8 dereferenceable(16) %1) unnamed_addr #1 align 2 {
  %3 = alloca ptr, align 8
  %4 = alloca ptr, align 8
  store ptr %0, ptr %3, align 8, !tbaa !4
  store ptr %1, ptr %4, align 8, !tbaa !11
  %5 = load ptr, ptr %3, align 8
  %6 = load ptr, ptr %4, align 8, !tbaa !11
  %7 = call noundef i32 @_ZNK4ncnn9ParamDict3getEii(ptr noundef nonnull align 8 dereferenceable(16) %6, i32 noundef 0, i32 noundef 0)
  %8 = getelementptr inbounds nuw %"class.ncnn::MultiHeadAttention", ptr %5, i32 0, i32 1
  store i32 %7, ptr %8, align 8, !tbaa !13
  %9 = load ptr, ptr %4, align 8, !tbaa !11
  %10 = call noundef i32 @_ZNK4ncnn9ParamDict3getEii(ptr noundef nonnull align 8 dereferenceable(16) %9, i32 noundef 1, i32 noundef 1)
  %11 = getelementptr inbounds nuw %"class.ncnn::MultiHeadAttention", ptr %5, i32 0, i32 2
  store i32 %10, ptr %11, align 4, !tbaa !35
  %12 = load ptr, ptr %4, align 8, !tbaa !11
  %13 = call noundef i32 @_ZNK4ncnn9ParamDict3getEii(ptr noundef nonnull align 8 dereferenceable(16) %12, i32 noundef 2, i32 noundef 0)
  %14 = getelementptr inbounds nuw %"class.ncnn::MultiHeadAttention", ptr %5, i32 0, i32 3
  store i32 %13, ptr %14, align 8, !tbaa !36
  %15 = load ptr, ptr %4, align 8, !tbaa !11
  %16 = getelementptr inbounds nuw %"class.ncnn::MultiHeadAttention", ptr %5, i32 0, i32 1
  %17 = load i32, ptr %16, align 8, !tbaa !13
  %18 = call noundef i32 @_ZNK4ncnn9ParamDict3getEii(ptr noundef nonnull align 8 dereferenceable(16) %15, i32 noundef 3, i32 noundef %17)
  %19 = getelementptr inbounds nuw %"class.ncnn::MultiHeadAttention", ptr %5, i32 0, i32 4
  store i32 %18, ptr %19, align 4, !tbaa !37
  %20 = load ptr, ptr %4, align 8, !tbaa !11
  %21 = getelementptr inbounds nuw %"class.ncnn::MultiHeadAttention", ptr %5, i32 0, i32 1
  %22 = load i32, ptr %21, align 8, !tbaa !13
  %23 = call noundef i32 @_ZNK4ncnn9ParamDict3getEii(ptr noundef nonnull align 8 dereferenceable(16) %20, i32 noundef 4, i32 noundef %22)
  %24 = getelementptr inbounds nuw %"class.ncnn::MultiHeadAttention", ptr %5, i32 0, i32 5
  store i32 %23, ptr %24, align 8, !tbaa !38
  %25 = load ptr, ptr %4, align 8, !tbaa !11
  %26 = call noundef i32 @_ZNK4ncnn9ParamDict3getEii(ptr noundef nonnull align 8 dereferenceable(16) %25, i32 noundef 5, i32 noundef 0)
  %27 = getelementptr inbounds nuw %"class.ncnn::MultiHeadAttention", ptr %5, i32 0, i32 6
  store i32 %26, ptr %27, align 4, !tbaa !39
  %28 = load ptr, ptr %4, align 8, !tbaa !11
  %29 = getelementptr inbounds nuw %"class.ncnn::MultiHeadAttention", ptr %5, i32 0, i32 1
  %30 = load i32, ptr %29, align 8, !tbaa !13
  %31 = getelementptr inbounds nuw %"class.ncnn::MultiHeadAttention", ptr %5, i32 0, i32 2
  %32 = load i32, ptr %31, align 4, !tbaa !35
  %33 = sdiv i32 %30, %32
  %34 = sitofp i32 %33 to float
  %35 = call fast float @llvm.sqrt.f32(float %34)
  %36 = fdiv fast float 1.000000e+00, %35
  %37 = call fast noundef nofpclass(nan inf) float @_ZNK4ncnn9ParamDict3getEif(ptr noundef nonnull align 8 dereferenceable(16) %28, i32 noundef 6, float noundef nofpclass(nan inf) %36)
  %38 = getelementptr inbounds nuw %"class.ncnn::MultiHeadAttention", ptr %5, i32 0, i32 7
  store float %37, ptr %38, align 8, !tbaa !40
  %39 = load ptr, ptr %4, align 8, !tbaa !11
  %40 = call noundef i32 @_ZNK4ncnn9ParamDict3getEii(ptr noundef nonnull align 8 dereferenceable(16) %39, i32 noundef 18, i32 noundef 0)
  %41 = getelementptr inbounds nuw %"class.ncnn::MultiHeadAttention", ptr %5, i32 0, i32 8
  store i32 %40, ptr %41, align 4, !tbaa !41
  ret i32 0
}