; Function Attrs: mustprogress uwtable
define hidden noundef i32 @_ZN4ncnn18MultiHeadAttention10load_paramERKNS_9ParamDictE(ptr noundef nonnull align 8 captures(none) dereferenceable(1036) initializes((208, 240)) %0, ptr noundef nonnull align 8 dereferenceable(16) %1) unnamed_addr #1 align 2 {
  %3 = tail call noundef i32 @_ZNK4ncnn9ParamDict3getEii(ptr noundef nonnull align 8 dereferenceable(16) %1, i32 noundef 0, i32 noundef 0)
  %4 = getelementptr inbounds nuw i8, ptr %0, i64 208
  store i32 %3, ptr %4, align 8, !tbaa !18
  %5 = tail call noundef i32 @_ZNK4ncnn9ParamDict3getEii(ptr noundef nonnull align 8 dereferenceable(16) %1, i32 noundef 1, i32 noundef 1)
  %6 = getelementptr inbounds nuw i8, ptr %0, i64 212
  store i32 %5, ptr %6, align 4, !tbaa !35
  %7 = tail call noundef i32 @_ZNK4ncnn9ParamDict3getEii(ptr noundef nonnull align 8 dereferenceable(16) %1, i32 noundef 2, i32 noundef 0)
  %8 = getelementptr inbounds nuw i8, ptr %0, i64 216
  store i32 %7, ptr %8, align 8, !tbaa !36
  %9 = load i32, ptr %4, align 8, !tbaa !18
  %10 = tail call noundef i32 @_ZNK4ncnn9ParamDict3getEii(ptr noundef nonnull align 8 dereferenceable(16) %1, i32 noundef 3, i32 noundef %9)
  %11 = getelementptr inbounds nuw i8, ptr %0, i64 220
  store i32 %10, ptr %11, align 4, !tbaa !37
  %12 = load i32, ptr %4, align 8, !tbaa !18
  %13 = tail call noundef i32 @_ZNK4ncnn9ParamDict3getEii(ptr noundef nonnull align 8 dereferenceable(16) %1, i32 noundef 4, i32 noundef %12)
  %14 = getelementptr inbounds nuw i8, ptr %0, i64 224
  store i32 %13, ptr %14, align 8, !tbaa !38
  %15 = tail call noundef i32 @_ZNK4ncnn9ParamDict3getEii(ptr noundef nonnull align 8 dereferenceable(16) %1, i32 noundef 5, i32 noundef 0)
  %16 = getelementptr inbounds nuw i8, ptr %0, i64 228
  store i32 %15, ptr %16, align 4, !tbaa !39
  %17 = load i32, ptr %4, align 8, !tbaa !18
  %18 = load i32, ptr %6, align 4, !tbaa !35
  %19 = sdiv i32 %17, %18
  %20 = sitofp i32 %19 to float
  %21 = tail call fast float @llvm.sqrt.f32(float %20)
  %22 = fdiv fast float 1.000000e+00, %21
  %23 = tail call fast noundef nofpclass(nan inf) float @_ZNK4ncnn9ParamDict3getEif(ptr noundef nonnull align 8 dereferenceable(16) %1, i32 noundef 6, float noundef nofpclass(nan inf) %22)
  %24 = getelementptr inbounds nuw i8, ptr %0, i64 232
  store float %23, ptr %24, align 8, !tbaa !40
  %25 = tail call noundef i32 @_ZNK4ncnn9ParamDict3getEii(ptr noundef nonnull align 8 dereferenceable(16) %1, i32 noundef 18, i32 noundef 0)
  %26 = getelementptr inbounds nuw i8, ptr %0, i64 236
  store i32 %25, ptr %26, align 4, !tbaa !41
  ret i32 0
}